; Function Attrs: mustprogress nounwind uwtable
define void @_ZN13WirelessFrameD2Ev(ptr noundef nonnull align 8 dereferenceable(64) %0) unnamed_addr #4 align 2 personality ptr @__gxx_personality_v0 {
  store ptr getelementptr inbounds ({ [55 x ptr], [10 x ptr] }, ptr @_ZTV13WirelessFrame, i64 0, i32 0, i64 2), ptr %0, align 8
  %2 = getelementptr inbounds i8, ptr %0, i64 16
  store ptr getelementptr inbounds ({ [55 x ptr], [10 x ptr] }, ptr @_ZTV13WirelessFrame, i64 0, i32 1, i64 2), ptr %2, align 8
  %3 = getelementptr inbounds i8, ptr %0, i64 48
  %4 = load ptr, ptr %3, align 8
  invoke void @ws80211_free_interfaces(ptr noundef %4)
          to label %5 unwind label %11

5:                                                ; preds = %1
  %6 = getelementptr inbounds i8, ptr %0, i64 40
  %7 = load ptr, ptr %6, align 8
  %8 = icmp eq ptr %7, null
  br i1 %8, label %10, label %9

9:                                                ; preds = %5
  tail call void @_ZdlPv(ptr noundef nonnull %7) #14
  br label %10

10:                                               ; preds = %9, %5
  tail call void @_ZN6QFrameD2Ev(ptr noundef nonnull align 8 dereferenceable(40) %0) #13
  ret void

11:                                               ; preds = %1
  %12 = landingpad { ptr, i32 }
          catch ptr null
  %13 = extractvalue { ptr, i32 } %12, 0
  tail call void @__clang_call_terminate(ptr %13) #15
  unreachable
}